target datalayout = "e-m:e-p270:32:32-p271:32:32-p272:64:64-i64:64-i128:128-f80:128-n8:16:32:64-S128"
target triple = "x86_64-pc-linux-gnu"

%struct._fvalue_t = type { ptr, %union.anon.1 }
%union.anon.1 = type { %struct._protocol_value_t }
%struct._protocol_value_t = type { ptr, i32, ptr, i8 }

@.str.52 = private unnamed_addr constant [42 x i8] c"\22%s\22 too big for this field, maximum %ld.\00", align 1
@.str.53 = private unnamed_addr constant [44 x i8] c"\22%s\22 too small for this field, minimum %ld.\00", align 1

; Function Attrs: null_pointer_is_valid sspstrong uwtable
define internal zeroext i1 @_sint64_from_uinteger64(ptr noundef %0, ptr noundef %1, i64 noundef %2, ptr noundef %3, i64 noundef %4, i64 noundef %5) #0 {
  %7 = alloca i1, align 1
  %8 = alloca ptr, align 8
  %9 = alloca ptr, align 8
  %10 = alloca i64, align 8
  %11 = alloca ptr, align 8
  %12 = alloca i64, align 8
  %13 = alloca i64, align 8
  %14 = alloca i64, align 8
  %15 = alloca i32, align 4
  store ptr %0, ptr %8, align 8
  store ptr %1, ptr %9, align 8
  store i64 %2, ptr %10, align 8
  store ptr %3, ptr %11, align 8
  store i64 %4, ptr %12, align 8
  store i64 %5, ptr %13, align 8
  %16 = load i64, ptr %10, align 8
  %17 = icmp ugt i64 %16, 9223372036854775807
  br i1 %17, label %18, label %27

18:                                               ; preds = %6
  %19 = load ptr, ptr %11, align 8
  %20 = icmp ne ptr %19, null
  br i1 %20, label %21, label %26

21:                                               ; preds = %18
  %22 = load ptr, ptr %9, align 8
  %23 = load i64, ptr %12, align 8
  %24 = call noalias ptr (ptr, ptr, ...) @wmem_strdup_printf(ptr noundef null, ptr noundef @.str.52, ptr noundef %22, i64 noundef %23)
  %25 = load ptr, ptr %11, align 8
  store ptr %24, ptr %25, align 8
  br label %26

26:                                               ; preds = %21, %18
  store i1 false, ptr %7, align 1
  br label %60

27:                                               ; preds = %6
  call void @llvm.lifetime.start.p0(i64 8, ptr %14) #10
  %28 = load i64, ptr %10, align 8
  store i64 %28, ptr %14, align 8
  %29 = load i64, ptr %14, align 8
  %30 = load i64, ptr %12, align 8
  %31 = icmp sgt i64 %29, %30
  br i1 %31, label %32, label %41

32:                                               ; preds = %27
  %33 = load ptr, ptr %11, align 8
  %34 = icmp ne ptr %33, null
  br i1 %34, label %35, label %40

35:                                               ; preds = %32
  %36 = load ptr, ptr %9, align 8
  %37 = load i64, ptr %12, align 8
  %38 = call noalias ptr (ptr, ptr, ...) @wmem_strdup_printf(ptr noundef null, ptr noundef @.str.52, ptr noundef %36, i64 noundef %37)
  %39 = load ptr, ptr %11, align 8
  store ptr %38, ptr %39, align 8
  br label %40

40:                                               ; preds = %35, %32
  store i1 false, ptr %7, align 1
  store i32 1, ptr %15, align 4
  br label %59

41:                                               ; preds = %27
  %42 = load i64, ptr %14, align 8
  %43 = load i64, ptr %13, align 8
  %44 = icmp slt i64 %42, %43
  br i1 %44, label %45, label %54

45:                                               ; preds = %41
  %46 = load ptr, ptr %11, align 8
  %47 = icmp ne ptr %46, null
  br i1 %47, label %48, label %53

48:                                               ; preds = %45
  %49 = load ptr, ptr %9, align 8
  %50 = load i64, ptr %13, align 8
  %51 = call noalias ptr (ptr, ptr, ...) @wmem_strdup_printf(ptr noundef null, ptr noundef @.str.53, ptr noundef %49, i64 noundef %50)
  %52 = load ptr, ptr %11, align 8
  store ptr %51, ptr %52, align 8
  br label %53

53:                                               ; preds = %48, %45
  store i1 false, ptr %7, align 1
  store i32 1, ptr %15, align 4
  br label %59

54:                                               ; preds = %41
  br label %55

55:                                               ; preds = %54
  %56 = load i64, ptr %14, align 8
  %57 = load ptr, ptr %8, align 8
  %58 = getelementptr inbounds nuw %struct._fvalue_t, ptr %57, i32 0, i32 1
  store i64 %56, ptr %58, align 8
  store i1 true, ptr %7, align 1
  store i32 1, ptr %15, align 4
  br label %59

59:                                               ; preds = %55, %53, %40
  call void @llvm.lifetime.end.p0(i64 8, ptr %14) #10
  br label %60

60:                                               ; preds = %59, %26
  %61 = load i1, ptr %7, align 1
  ret i1 %61
}

; Function Attrs: null_pointer_is_valid sspstrong uwtable
define internal zeroext i1 @sint16_from_uinteger64(ptr noundef %0, ptr noundef %1, i64 noundef %2, ptr noundef %3) #0 {
  %5 = alloca ptr, align 8
  %6 = alloca ptr, align 8
  %7 = alloca i64, align 8
  %8 = alloca ptr, align 8
  store ptr %0, ptr %5, align 8
  store ptr %1, ptr %6, align 8
  store i64 %2, ptr %7, align 8
  store ptr %3, ptr %8, align 8
  %9 = load ptr, ptr %5, align 8
  %10 = load ptr, ptr %6, align 8
  %11 = load i64, ptr %7, align 8
  %12 = load ptr, ptr %8, align 8
  %13 = call zeroext i1 @_sint64_from_uinteger64(ptr noundef %9, ptr noundef %10, i64 noundef %11, ptr noundef %12, i64 noundef 32767, i64 noundef -32768)
  ret i1 %13
}